target datalayout = "e-m:e-p270:32:32-p271:32:32-p272:64:64-i64:64-i128:128-f80:128-n8:16:32:64-S128"
target triple = "x86_64-pc-linux-gnu"

%struct.iptrace_t = type { ptr, i32 }

; Function Attrs: null_pointer_is_valid sspstrong uwtable
define internal void @add_new_if_info(ptr noundef %0, ptr noundef %1, ptr noundef %2) #0 {
  %4 = alloca ptr, align 8
  %5 = alloca ptr, align 8
  %6 = alloca ptr, align 8
  %7 = alloca ptr, align 8
  %8 = alloca i64, align 8
  %9 = alloca i64, align 8
  %10 = alloca ptr, align 8
  %11 = alloca ptr, align 8
  store ptr %0, ptr %4, align 8
  store ptr %1, ptr %5, align 8
  store ptr %2, ptr %6, align 8
  call void @llvm.lifetime.start.p0(i64 8, ptr %7) #13
  call void @llvm.lifetime.start.p0(i64 8, ptr %8) #13
  store i64 1, ptr %8, align 8
  call void @llvm.lifetime.start.p0(i64 8, ptr %9) #13
  store i64 7, ptr %9, align 8
  call void @llvm.lifetime.start.p0(i64 8, ptr %10) #13
  %12 = load i64, ptr %9, align 8
  %13 = icmp eq i64 %12, 1
  br i1 %13, label %14, label %17

14:                                               ; preds = %3
  %15 = load i64, ptr %8, align 8
  %16 = call noalias ptr @g_malloc(i64 noundef %15) #15
  store ptr %16, ptr %10, align 8
  br label %38

17:                                               ; preds = %3
  %18 = load i64, ptr %8, align 8
  %19 = call i1 @llvm.is.constant.i64(i64 %18)
  br i1 %19, label %20, label %33

20:                                               ; preds = %17
  %21 = load i64, ptr %9, align 8
  %22 = icmp eq i64 %21, 0
  br i1 %22, label %28, label %23

23:                                               ; preds = %20
  %24 = load i64, ptr %8, align 8
  %25 = load i64, ptr %9, align 8
  %26 = udiv i64 -1, %25
  %27 = icmp ule i64 %24, %26
  br i1 %27, label %28, label %33

28:                                               ; preds = %23, %20
  %29 = load i64, ptr %8, align 8
  %30 = load i64, ptr %9, align 8
  %31 = mul i64 %29, %30
  %32 = call noalias ptr @g_malloc(i64 noundef %31) #15
  store ptr %32, ptr %10, align 8
  br label %37

33:                                               ; preds = %23, %17
  %34 = load i64, ptr %8, align 8
  %35 = load i64, ptr %9, align 8
  %36 = call noalias ptr @g_malloc_n(i64 noundef %34, i64 noundef %35) #16
  store ptr %36, ptr %10, align 8
  br label %37

37:                                               ; preds = %33, %28
  br label %38

38:                                               ; preds = %37, %14
  %39 = load ptr, ptr %10, align 8
  store ptr %39, ptr %11, align 8
  call void @llvm.lifetime.end.p0(i64 8, ptr %10) #13
  call void @llvm.lifetime.end.p0(i64 8, ptr %9) #13
  call void @llvm.lifetime.end.p0(i64 8, ptr %8) #13
  %40 = load ptr, ptr %11, align 8
  store ptr %40, ptr %7, align 8
  %41 = load ptr, ptr %7, align 8
  %42 = load ptr, ptr %5, align 8
  call void @llvm.memcpy.p0.p0.i64(ptr align 1 %41, ptr align 1 %42, i64 7, i1 false)
  %43 = load ptr, ptr %4, align 8
  %44 = getelementptr inbounds nuw %struct.iptrace_t, ptr %43, i32 0, i32 1
  %45 = load i32, ptr %44, align 8
  %46 = zext i32 %45 to i64
  %47 = inttoptr i64 %46 to ptr
  %48 = load ptr, ptr %6, align 8
  store ptr %47, ptr %48, align 8
  %49 = load ptr, ptr %4, align 8
  %50 = getelementptr inbounds nuw %struct.iptrace_t, ptr %49, i32 0, i32 0
  %51 = load ptr, ptr %50, align 8
  %52 = load ptr, ptr %7, align 8
  %53 = load ptr, ptr %6, align 8
  %54 = load ptr, ptr %53, align 8
  %55 = call i32 @g_hash_table_insert(ptr noundef %51, ptr noundef %52, ptr noundef %54)
  %56 = load ptr, ptr %4, align 8
  %57 = getelementptr inbounds nuw %struct.iptrace_t, ptr %56, i32 0, i32 1
  %58 = load i32, ptr %57, align 8
  %59 = add i32 %58, 1
  store i32 %59, ptr %57, align 8
  call void @llvm.lifetime.end.p0(i64 8, ptr %7) #13
  ret void
}