; Function Attrs: null_pointer_is_valid sspstrong uwtable
define internal fastcc void @add_new_if_info(ptr noundef captures(none) %0, ptr noundef readonly captures(none) %1, ptr noundef writeonly captures(none) initializes((0, 8)) %2) unnamed_addr #0 {
  %4 = tail call noalias dereferenceable_or_null(7) ptr @g_malloc(i64 noundef 7) #10
  tail call void @llvm.memcpy.p0.p0.i64(ptr noundef align 1 dereferenceable(7) %4, ptr noundef align 1 dereferenceable(7) %1, i64 7, i1 false)
  %5 = getelementptr inbounds nuw i8, ptr %0, i64 8
  %6 = load i32, ptr %5, align 8
  %7 = zext i32 %6 to i64
  %8 = inttoptr i64 %7 to ptr
  store ptr %8, ptr %2, align 8
  %9 = load ptr, ptr %0, align 8
  %10 = tail call i32 @g_hash_table_insert(ptr noundef %9, ptr noundef %4, ptr noundef %8)
  %11 = load i32, ptr %5, align 8
  %12 = add i32 %11, 1
  store i32 %12, ptr %5, align 8
  ret void
}